(lp1
F1
aF1
aF1
aF1
aF1
aF1
aF1
aF1
aF1
aF1
aF1
aF1
aF1
aF1
aF1
aF1
aF1
aF1
aF1
aF1
aF0.98999999999999999
aF0.98999999999999999
aF0.98999999999999999
aF0.98999999999999999
aF0.98999999999999999
aF0.98999999999999999
aF0.98999999999999999
aF0.97999999999999998
aF0.97999999999999998
aF0.97999999999999998
aF0.96999999999999997
aF0.96999999999999997
aF0.95999999999999996
aF0.95999999999999996
aF0.94999999999999996
aF0.93999999999999995
aF0.93999999999999995
aF0.93000000000000005
aF0.92000000000000004
aF0.91000000000000003
aF0.90000000000000002
aF0.88
aF0.87
aF0.85999999999999999
aF0.83999999999999997
aF0.82999999999999996
aF0.81000000000000005
aF0.79000000000000004
aF0.77000000000000002
aF0.76000000000000001
aF0.73999999999999999
aF0.71999999999999997
aF0.69999999999999996
aF0.68000000000000005
aF0.66000000000000003
aF0.65000000000000002
aF0.63
aF0.60999999999999999
aF0.58999999999999997
aF0.56999999999999995
aF0.55000000000000004
aF0.53000000000000003
aF0.51000000000000001
aF0.48999999999999999
aF0.46999999999999997
aF0.45000000000000001
aF0.42999999999999999
aF0.41999999999999998
aF0.40000000000000002
aF0.38
aF0.37
aF0.34999999999999998
aF0.34000000000000002
aF0.32000000000000001
aF0.31
aF0.29999999999999999
aF0.28999999999999998
aF0.28000000000000003
aF0.26000000000000001
aF0.25
aF0.23999999999999999
aF0.22
aF0.20999999999999999
aF0.19
aF0.17999999999999999
aF0.17000000000000001
aF0.16
aF0.16
aF0.14999999999999999
aF0.14999999999999999
aF0.16
aF0.16
aF0.17000000000000001
aF0.17000000000000001
aF0.17999999999999999
aF0.19
aF0.20000000000000001
aF0.20000000000000001
aF0.20000000000000001
a.