(lp1
F1
aF1
aF1
aF1
aF1
aF1
aF1
aF1
aF1
aF1
aF1
aF1
aF1
aF1
aF1
aF1
aF1
aF1
aF1
aF1
aF1
aF1
aF1
aF1
aF1
aF1
aF0.98999999999999999
aF0.98999999999999999
aF0.98999999999999999
aF0.98999999999999999
aF0.98999999999999999
aF0.98999999999999999
aF0.98999999999999999
aF0.98999999999999999
aF0.98999999999999999
aF0.98999999999999999
aF0.98999999999999999
aF0.98999999999999999
aF0.98999999999999999
aF0.98999999999999999
aF0.98999999999999999
aF0.98999999999999999
aF0.98999999999999999
aF0.98999999999999999
aF0.98999999999999999
aF0.98999999999999999
aF0.98999999999999999
aF0.98999999999999999
aF0.97999999999999998
aF0.97999999999999998
aF0.97999999999999998
aF0.97999999999999998
aF0.97999999999999998
aF0.97999999999999998
aF0.97999999999999998
aF0.97999999999999998
aF0.98999999999999999
aF0.98999999999999999
aF0.98999999999999999
aF0.97999999999999998
aF0.97999999999999998
aF0.97999999999999998
aF0.97999999999999998
aF0.96999999999999997
aF0.96999999999999997
aF0.95999999999999996
aF0.95999999999999996
aF0.95999999999999996
aF0.95999999999999996
aF0.95999999999999996
aF0.95999999999999996
aF0.95999999999999996
aF0.96999999999999997
aF0.96999999999999997
aF0.97999999999999998
aF0.97999999999999998
aF0.97999999999999998
aF0.97999999999999998
aF0.98999999999999999
aF0.97999999999999998
aF0.97999999999999998
aF0.97999999999999998
aF0.97999999999999998
aF0.97999999999999998
aF0.97999999999999998
aF0.97999999999999998
aF0.97999999999999998
aF0.97999999999999998
aF0.97999999999999998
aF0.98999999999999999
a.