(lp1
F0.97999999999999998
aF0.97999999999999998
aF0.97999999999999998
aF0.97999999999999998
aF0.97999999999999998
aF0.97999999999999998
aF0.97999999999999998
aF0.97999999999999998
aF0.97999999999999998
aF0.97999999999999998
aF0.97999999999999998
aF0.97999999999999998
aF0.97999999999999998
aF0.96999999999999997
aF0.96999999999999997
aF0.95999999999999996
aF0.94999999999999996
aF0.93999999999999995
aF0.92000000000000004
aF0.89000000000000001
aF0.84999999999999998
aF0.80000000000000004
aF0.73999999999999999
aF0.67000000000000004
aF0.57999999999999996
aF0.5
aF0.42999999999999999
aF0.39000000000000001
aF0.35999999999999999
aF0.33000000000000002
aF0.32000000000000001
a.