(lp1
F1
aF1
aF1
aF1
aF1
aF1
aF1
aF1
aF1
aF1
aF1
aF1
aF1
aF1
aF0.98999999999999999
aF0.98999999999999999
aF0.98999999999999999
aF0.98999999999999999
aF0.97999999999999998
aF0.96999999999999997
aF0.95999999999999996
aF0.93999999999999995
aF0.92000000000000004
aF0.88
aF0.83999999999999997
aF0.79000000000000004
aF0.71999999999999997
aF0.65000000000000002
aF0.56999999999999995
aF0.5
aF0.45000000000000001
a.