(lp1
F0.97999999999999998
aF0.97999999999999998
aF0.97999999999999998
aF0.97999999999999998
aF0.97999999999999998
aF0.32000000000000001
aF0.28000000000000003
aF0.28999999999999998
aF0.28999999999999998
aF0.28000000000000003
a.