(lp1
F1
aF1
aF1
aF1
aF0.98999999999999999
aF0.98999999999999999
aF0.98999999999999999
aF0.98999999999999999
aF0.98999999999999999
aF0.98999999999999999
aF0.97999999999999998
aF0.97999999999999998
aF0.96999999999999997
aF0.96999999999999997
aF0.95999999999999996
aF0.94999999999999996
aF0.93999999999999995
aF0.92000000000000004
aF0.90000000000000002
aF0.88
aF0.84999999999999998
aF0.81000000000000005
aF0.77000000000000002
aF0.70999999999999996
aF0.65000000000000002
aF0.56999999999999995
aF0.5
aF0.41999999999999998
aF0.33000000000000002
aF0.26000000000000001
aF0.20999999999999999
a.