(lp1
F0.97999999999999998
aF0.97999999999999998
aF0.97999999999999998
aF0.97999999999999998
aF0.97999999999999998
aF0.97999999999999998
aF0.97999999999999998
aF0.97999999999999998
aF0.97999999999999998
aF0.97999999999999998
aF0.97999999999999998
aF0.97999999999999998
aF0.97999999999999998
aF0.97999999999999998
aF0.97999999999999998
aF0.97999999999999998
aF0.97999999999999998
aF0.96999999999999997
aF0.96999999999999997
aF0.96999999999999997
aF0.96999999999999997
aF0.95999999999999996
aF0.95999999999999996
aF0.94999999999999996
aF0.93999999999999995
aF0.93000000000000005
aF0.92000000000000004
aF0.91000000000000003
aF0.89000000000000001
aF0.87
aF0.84999999999999998
aF0.82999999999999996
aF0.80000000000000004
aF0.77000000000000002
aF0.75
aF0.71999999999999997
aF0.68999999999999995
aF0.66000000000000003
aF0.64000000000000001
aF0.63
aF0.62
aF0.62
aF0.62
aF0.62
aF0.63
aF0.64000000000000001
aF0.65000000000000002
aF0.65000000000000002
aF0.65000000000000002
aF0.65000000000000002
aF0.64000000000000001
a.