(lp1
F1
aF1
aF1
aF1
aF1
aF1
aF1
aF1
aF1
aF1
aF1
aF1
aF1
aF1
aF1
aF1
aF1
aF1
aF1
aF1
aF0.98999999999999999
aF0.98999999999999999
aF0.98999999999999999
aF0.98999999999999999
aF0.98999999999999999
aF0.98999999999999999
aF0.97999999999999998
aF0.97999999999999998
aF0.96999999999999997
aF0.96999999999999997
aF0.95999999999999996
aF0.94999999999999996
aF0.93999999999999995
aF0.92000000000000004
aF0.91000000000000003
aF0.89000000000000001
aF0.85999999999999999
aF0.83999999999999997
aF0.81000000000000005
aF0.78000000000000003
aF0.75
aF0.72999999999999998
aF0.70999999999999996
aF0.69999999999999996
aF0.68999999999999995
aF0.68999999999999995
aF0.69999999999999996
aF0.69999999999999996
aF0.69999999999999996
aF0.68999999999999995
aF0.68000000000000005
a.